; Function Attrs: mustprogress nounwind uwtable
define hidden void @_ZN27JvmtiEventControllerPrivate24flush_object_free_eventsEP12JvmtiEnvBase(ptr noundef %0) local_unnamed_addr #3 align 2 {
  %2 = getelementptr inbounds i8, ptr %0, i64 376
  %3 = load volatile ptr, ptr %2, align 8
  tail call void asm sideeffect "", "~{memory},~{dirflag},~{fpsr},~{flags}"() #15, !srcloc !13
  %.not = icmp eq ptr %3, null
  br i1 %.not, label %5, label %4

4:                                                ; preds = %1
  tail call void @_ZN11JvmtiTagMap24flush_object_free_eventsEv(ptr noundef nonnull align 8 dereferenceable(122) %3) #15
  br label %5

5:                                                ; preds = %4, %1
  ret void
}